target datalayout = "e-m:e-p270:32:32-p271:32:32-p272:64:64-i64:64-i128:128-f80:128-n8:16:32:64-S128"
target triple = "x86_64-pc-linux-gnu"

%"class.llvm::SmallVectorBase" = type { ptr, i32, i32 }
%"class.llvm::ScaledNumber" = type <{ i64, i16, [6 x i8] }>
%"class.llvm::bfi_detail::BlockMass" = type { i64 }
%"struct.llvm::BlockFrequencyInfoImplBase::BlockNode" = type { i32 }
%"struct.llvm::BlockFrequencyInfoImplBase::LoopData" = type { ptr, i8, i32, %"class.llvm::SmallVector.46", %"class.llvm::SmallVector.51", %"class.llvm::SmallVector.56", %"class.llvm::bfi_detail::BlockMass", %"class.llvm::ScaledNumber" }
%"class.llvm::SmallVector.46" = type { %"class.llvm::SmallVectorImpl.47", %"struct.llvm::SmallVectorStorage.50" }
%"class.llvm::SmallVectorImpl.47" = type { %"class.llvm::SmallVectorTemplateBase.48" }
%"class.llvm::SmallVectorTemplateBase.48" = type { %"class.llvm::SmallVectorTemplateCommon.49" }
%"class.llvm::SmallVectorTemplateCommon.49" = type { %"class.llvm::SmallVectorBase" }
%"struct.llvm::SmallVectorStorage.50" = type { [64 x i8] }
%"class.llvm::SmallVector.51" = type { %"class.llvm::SmallVectorImpl.52", %"struct.llvm::SmallVectorStorage.55" }
%"class.llvm::SmallVectorImpl.52" = type { %"class.llvm::SmallVectorTemplateBase.53" }
%"class.llvm::SmallVectorTemplateBase.53" = type { %"class.llvm::SmallVectorTemplateCommon.54" }
%"class.llvm::SmallVectorTemplateCommon.54" = type { %"class.llvm::SmallVectorBase" }
%"struct.llvm::SmallVectorStorage.55" = type { [16 x i8] }
%"class.llvm::SmallVector.56" = type { %"class.llvm::SmallVectorImpl.57", %"struct.llvm::SmallVectorStorage.60" }
%"class.llvm::SmallVectorImpl.57" = type { %"class.llvm::SmallVectorTemplateBase.58" }
%"class.llvm::SmallVectorTemplateBase.58" = type { %"class.llvm::SmallVectorTemplateCommon.59" }
%"class.llvm::SmallVectorTemplateCommon.59" = type { %"class.llvm::SmallVectorBase" }
%"struct.llvm::SmallVectorStorage.60" = type { [8 x i8] }
%"struct.std::pair" = type { %"struct.llvm::BlockFrequencyInfoImplBase::BlockNode", %"class.llvm::bfi_detail::BlockMass" }

; Function Attrs: mustprogress nounwind uwtable
define linkonce_odr hidden noundef ptr @_ZNK4llvm25SmallVectorTemplateCommonINS_26BlockFrequencyInfoImplBase9BlockNodeEvE5beginEv(ptr noundef nonnull align 8 dereferenceable(16) %0) #1 comdat align 2 {
  %2 = alloca ptr, align 8
  store ptr %0, ptr %2, align 8
  %3 = load ptr, ptr %2, align 8
  %4 = getelementptr inbounds nuw %"class.llvm::SmallVectorBase", ptr %3, i32 0, i32 0
  %5 = load ptr, ptr %4, align 8
  ret ptr %5
}

; Function Attrs: mustprogress nounwind uwtable
define linkonce_odr hidden noundef nonnull align 4 dereferenceable(4) ptr @_ZNK4llvm25SmallVectorTemplateCommonINS_26BlockFrequencyInfoImplBase9BlockNodeEvEixEm(ptr noundef nonnull align 8 dereferenceable(16) %0, i64 noundef %1) #1 comdat align 2 {
  %3 = alloca ptr, align 8
  %4 = alloca i64, align 8
  store ptr %0, ptr %3, align 8
  store i64 %1, ptr %4, align 8
  %5 = load ptr, ptr %3, align 8
  %6 = call noundef ptr @_ZNK4llvm25SmallVectorTemplateCommonINS_26BlockFrequencyInfoImplBase9BlockNodeEvE5beginEv(ptr noundef nonnull align 8 dereferenceable(16) %5)
  %7 = load i64, ptr %4, align 8
  %8 = getelementptr inbounds %"struct.llvm::BlockFrequencyInfoImplBase::BlockNode", ptr %6, i64 %7
  ret ptr %8
}

; Function Attrs: mustprogress nounwind uwtable
define linkonce_odr hidden noundef i64 @_ZNK4llvm10bfi_detail9BlockMass7getMassEv(ptr noundef nonnull align 8 dereferenceable(8) %0) #1 comdat align 2 {
  %2 = alloca ptr, align 8
  store ptr %0, ptr %2, align 8
  %3 = load ptr, ptr %2, align 8
  %4 = getelementptr inbounds nuw %"class.llvm::bfi_detail::BlockMass", ptr %3, i32 0, i32 0
  %5 = load i64, ptr %4, align 8
  ret i64 %5
}

; Function Attrs: mustprogress nounwind uwtable
define linkonce_odr hidden i32 @_ZNK4llvm26BlockFrequencyInfoImplBase8LoopData9getHeaderEv(ptr noundef nonnull align 8 dereferenceable(176) %0) #1 comdat align 2 {
  %2 = alloca %"struct.llvm::BlockFrequencyInfoImplBase::BlockNode", align 4
  %3 = alloca ptr, align 8
  store ptr %0, ptr %3, align 8
  %4 = load ptr, ptr %3, align 8
  %5 = getelementptr inbounds nuw %"struct.llvm::BlockFrequencyInfoImplBase::LoopData", ptr %4, i32 0, i32 4
  %6 = call noundef nonnull align 4 dereferenceable(4) ptr @_ZNK4llvm25SmallVectorTemplateCommonINS_26BlockFrequencyInfoImplBase9BlockNodeEvEixEm(ptr noundef nonnull align 8 dereferenceable(16) %5, i64 noundef 0)
  call void @llvm.memcpy.p0.p0.i64(ptr align 4 %2, ptr align 4 %6, i64 4, i1 false)
  %7 = getelementptr inbounds nuw %"struct.llvm::BlockFrequencyInfoImplBase::BlockNode", ptr %2, i32 0, i32 0
  %8 = load i32, ptr %7, align 4
  ret i32 %8
}

; Function Attrs: mustprogress nounwind uwtable
define linkonce_odr hidden noundef ptr @_ZN4llvm25SmallVectorTemplateCommonISt4pairINS_26BlockFrequencyInfoImplBase9BlockNodeENS_10bfi_detail9BlockMassEEvE3endEv(ptr noundef nonnull align 8 dereferenceable(16) %0) #1 comdat align 2 {
  %2 = alloca ptr, align 8
  store ptr %0, ptr %2, align 8
  %3 = load ptr, ptr %2, align 8
  %4 = call noundef ptr @_ZN4llvm25SmallVectorTemplateCommonISt4pairINS_26BlockFrequencyInfoImplBase9BlockNodeENS_10bfi_detail9BlockMassEEvE5beginEv(ptr noundef nonnull align 8 dereferenceable(16) %3)
  %5 = call noundef i64 @_ZNK4llvm15SmallVectorBaseIjE4sizeEv(ptr noundef nonnull align 8 dereferenceable(16) %3)
  %6 = getelementptr inbounds %"struct.std::pair", ptr %4, i64 %5
  ret ptr %6
}

; Function Attrs: mustprogress nounwind uwtable
define linkonce_odr hidden noundef ptr @_ZN4llvm25SmallVectorTemplateCommonISt4pairINS_26BlockFrequencyInfoImplBase9BlockNodeENS_10bfi_detail9BlockMassEEvE5beginEv(ptr noundef nonnull align 8 dereferenceable(16) %0) #1 comdat align 2 {
  %2 = alloca ptr, align 8
  store ptr %0, ptr %2, align 8
  %3 = load ptr, ptr %2, align 8
  %4 = getelementptr inbounds nuw %"class.llvm::SmallVectorBase", ptr %3, i32 0, i32 0
  %5 = load ptr, ptr %4, align 8
  ret ptr %5
}

; Function Attrs: mustprogress nounwind uwtable
define dso_local noundef zeroext i1 @_ZN4llvm26BlockFrequencyInfoImplBase23addLoopSuccessorsToDistEPKNS0_8LoopDataERS1_RNS0_12DistributionE(ptr noundef nonnull align 8 dereferenceable(112) %0, ptr noundef %1, ptr noundef nonnull align 8 dereferenceable(176) %2, ptr noundef nonnull align 8 dereferenceable(89) %3) #1 align 2 {
  %5 = alloca i1, align 1
  %6 = alloca ptr, align 8
  %7 = alloca ptr, align 8
  %8 = alloca ptr, align 8
  %9 = alloca ptr, align 8
  %10 = alloca ptr, align 8
  %11 = alloca ptr, align 8
  %12 = alloca ptr, align 8
  %13 = alloca ptr, align 8
  %14 = alloca %"struct.llvm::BlockFrequencyInfoImplBase::BlockNode", align 4
  store ptr %0, ptr %6, align 8
  store ptr %1, ptr %7, align 8
  store ptr %2, ptr %8, align 8
  store ptr %3, ptr %9, align 8
  %15 = load ptr, ptr %6, align 8
  %16 = load ptr, ptr %8, align 8
  %17 = getelementptr inbounds nuw %"struct.llvm::BlockFrequencyInfoImplBase::LoopData", ptr %16, i32 0, i32 3
  store ptr %17, ptr %10, align 8
  %18 = load ptr, ptr %10, align 8
  %19 = call noundef ptr @_ZN4llvm25SmallVectorTemplateCommonISt4pairINS_26BlockFrequencyInfoImplBase9BlockNodeENS_10bfi_detail9BlockMassEEvE5beginEv(ptr noundef nonnull align 8 dereferenceable(16) %18)
  store ptr %19, ptr %11, align 8
  %20 = load ptr, ptr %10, align 8
  %21 = call noundef ptr @_ZN4llvm25SmallVectorTemplateCommonISt4pairINS_26BlockFrequencyInfoImplBase9BlockNodeENS_10bfi_detail9BlockMassEEvE3endEv(ptr noundef nonnull align 8 dereferenceable(16) %20)
  store ptr %21, ptr %12, align 8
  br label %22

22:                                               ; preds = %42, %4
  %23 = load ptr, ptr %11, align 8
  %24 = load ptr, ptr %12, align 8
  %25 = icmp ne ptr %23, %24
  br i1 %25, label %26, label %45

26:                                               ; preds = %22
  %27 = load ptr, ptr %11, align 8
  store ptr %27, ptr %13, align 8
  %28 = load ptr, ptr %9, align 8
  %29 = load ptr, ptr %7, align 8
  %30 = load ptr, ptr %8, align 8
  %31 = call i32 @_ZNK4llvm26BlockFrequencyInfoImplBase8LoopData9getHeaderEv(ptr noundef nonnull align 8 dereferenceable(176) %30)
  %32 = getelementptr inbounds nuw %"struct.llvm::BlockFrequencyInfoImplBase::BlockNode", ptr %14, i32 0, i32 0
  store i32 %31, ptr %32, align 4
  %33 = load ptr, ptr %13, align 8
  %34 = getelementptr inbounds nuw %"struct.std::pair", ptr %33, i32 0, i32 0
  %35 = load ptr, ptr %13, align 8
  %36 = getelementptr inbounds nuw %"struct.std::pair", ptr %35, i32 0, i32 1
  %37 = call noundef i64 @_ZNK4llvm10bfi_detail9BlockMass7getMassEv(ptr noundef nonnull align 8 dereferenceable(8) %36)
  %38 = call noundef zeroext i1 @_ZN4llvm26BlockFrequencyInfoImplBase9addToDistERNS0_12DistributionEPKNS0_8LoopDataERKNS0_9BlockNodeES8_m(ptr noundef nonnull align 8 dereferenceable(112) %15, ptr noundef nonnull align 8 dereferenceable(89) %28, ptr noundef %29, ptr noundef nonnull align 4 dereferenceable(4) %14, ptr noundef nonnull align 4 dereferenceable(4) %34, i64 noundef %37)
  %39 = xor i1 %38, true
  br i1 %39, label %40, label %41

40:                                               ; preds = %26
  store i1 false, ptr %5, align 1
  br label %46

41:                                               ; preds = %26
  br label %42

42:                                               ; preds = %41
  %43 = load ptr, ptr %11, align 8
  %44 = getelementptr inbounds %"struct.std::pair", ptr %43, i32 1
  store ptr %44, ptr %11, align 8
  br label %22

45:                                               ; preds = %22
  store i1 true, ptr %5, align 1
  br label %46

46:                                               ; preds = %45, %40
  %47 = load i1, ptr %5, align 1
  ret i1 %47
}