; Function Attrs: mustprogress nounwind uwtable
define dso_local noundef zeroext i1 @_ZN4llvm26BlockFrequencyInfoImplBase23addLoopSuccessorsToDistEPKNS0_8LoopDataERS1_RNS0_12DistributionE(ptr noundef nonnull readonly align 8 captures(none) dereferenceable(112) %0, ptr noundef %1, ptr noundef nonnull align 8 dereferenceable(176) %2, ptr noundef nonnull align 8 dereferenceable(89) %3) local_unnamed_addr #0 align 2 {
  %5 = alloca %"struct.llvm::BlockFrequencyInfoImplBase::BlockNode", align 4
  %6 = getelementptr inbounds nuw i8, ptr %2, i64 16
  %7 = load ptr, ptr %6, align 8
  %8 = tail call noundef i64 @_ZNK4llvm15SmallVectorBaseIjE4sizeEv(ptr noundef nonnull align 8 dereferenceable(16) %6) #23
  %9 = getelementptr inbounds %"struct.std::pair", ptr %7, i64 %8
  %.not15 = icmp eq i64 %8, 0
  br i1 %.not15, label %._crit_edge, label %.lr.ph

.lr.ph:                                           ; preds = %4
  %10 = getelementptr inbounds nuw i8, ptr %2, i64 96
  br label %11

11:                                               ; preds = %11, %.lr.ph
  %.01416 = phi ptr [ %7, %.lr.ph ], [ %16, %11 ]
  %12 = load ptr, ptr %10, align 8
  %.sroa.0.0.copyload.i = load i32, ptr %12, align 4
  store i32 %.sroa.0.0.copyload.i, ptr %5, align 4
  %13 = getelementptr inbounds nuw i8, ptr %.01416, i64 8
  %14 = load i64, ptr %13, align 8
  %15 = call noundef zeroext i1 @_ZN4llvm26BlockFrequencyInfoImplBase9addToDistERNS0_12DistributionEPKNS0_8LoopDataERKNS0_9BlockNodeES8_m(ptr noundef nonnull align 8 dereferenceable(112) %0, ptr noundef nonnull align 8 dereferenceable(89) %3, ptr noundef %1, ptr noundef nonnull align 4 dereferenceable(4) %5, ptr noundef nonnull align 4 dereferenceable(4) %.01416, i64 noundef %14)
  %16 = getelementptr inbounds nuw i8, ptr %.01416, i64 16
  %.not = icmp ne ptr %16, %9
  %or.cond.not = select i1 %15, i1 %.not, i1 false
  br i1 %or.cond.not, label %11, label %._crit_edge

._crit_edge:                                      ; preds = %11, %4
  %.not.lcssa = phi i1 [ true, %4 ], [ %15, %11 ]
  ret i1 %.not.lcssa
}